target datalayout = "e-m:e-p270:32:32-p271:32:32-p272:64:64-i64:64-i128:128-f80:128-n8:16:32:64-S128"
target triple = "x86_64-pc-linux-gnu"

; Function Attrs: nounwind uwtable
define internal void @loop_filter_h_44_16_c(ptr noundef %0, i64 noundef %1, i32 noundef %2, i32 noundef %3, i32 noundef %4) #2 {
  %6 = alloca ptr, align 8
  %7 = alloca i64, align 8
  %8 = alloca i32, align 4
  %9 = alloca i32, align 4
  %10 = alloca i32, align 4
  store ptr %0, ptr %6, align 8, !tbaa !10
  store i64 %1, ptr %7, align 8, !tbaa !12
  store i32 %2, ptr %8, align 4, !tbaa !18
  store i32 %3, ptr %9, align 4, !tbaa !18
  store i32 %4, ptr %10, align 4, !tbaa !18
  %11 = load ptr, ptr %6, align 8, !tbaa !10
  %12 = load i64, ptr %7, align 8, !tbaa !12
  %13 = load i32, ptr %8, align 4, !tbaa !18
  %14 = and i32 %13, 255
  %15 = load i32, ptr %9, align 4, !tbaa !18
  %16 = and i32 %15, 255
  %17 = load i32, ptr %10, align 4, !tbaa !18
  %18 = and i32 %17, 255
  call void @loop_filter_h_4_8_c(ptr noundef %11, i64 noundef %12, i32 noundef %14, i32 noundef %16, i32 noundef %18)
  %19 = load ptr, ptr %6, align 8, !tbaa !10
  %20 = load i64, ptr %7, align 8, !tbaa !12
  %21 = mul nsw i64 8, %20
  %22 = getelementptr inbounds i8, ptr %19, i64 %21
  %23 = load i64, ptr %7, align 8, !tbaa !12
  %24 = load i32, ptr %8, align 4, !tbaa !18
  %25 = ashr i32 %24, 8
  %26 = load i32, ptr %9, align 4, !tbaa !18
  %27 = ashr i32 %26, 8
  %28 = load i32, ptr %10, align 4, !tbaa !18
  %29 = ashr i32 %28, 8
  call void @loop_filter_h_4_8_c(ptr noundef %22, i64 noundef %23, i32 noundef %25, i32 noundef %27, i32 noundef %29)
  ret void
}